Certificate:
    Data:
        Version: 3 (0x2)
        Serial Number: 1048594 (0x100012)
        Signature Algorithm: sha1WithRSAEncryption
        Issuer: C=US, ST=WA, O=NodeBrain Open Source Project, OU=NodeBrain Webster Tutorial, CN=NodeBrain Webster Tutorial Root CA/emailAddress=ed.a.trettevik@boeing.com
        Validity
            Not Before: Dec 31 22:32:52 2012 GMT
            Not After : Dec 31 22:32:52 2013 GMT
        Subject: C=US, ST=WA, O=NodeBrain Open Source Project, OU=NodeBrain Webster Turorial, CN=nodebrain.web.boeing.com/emailAddress=ed.a.trettevik@boeing.com
        Subject Public Key Info:
            Public Key Algorithm: rsaEncryption
            RSA Public Key: (1024 bit)
                Modulus (1024 bit):
                    00:d1:6b:e8:94:1b:f2:e6:bc:6c:55:02:19:63:01:
                    8a:6d:df:e5:2b:ca:5f:52:5b:87:4b:5f:2b:15:44:
                    f9:c4:3a:ba:ea:c0:0f:f9:81:11:d6:9e:02:80:a2:
                    a5:82:94:73:e3:f4:c7:e8:d9:1e:62:1b:b8:d6:b4:
                    2a:aa:e5:92:c6:7e:1a:7d:6a:0c:7f:2c:a4:d3:e3:
                    0c:18:3a:f5:85:25:63:c3:a7:5a:92:d8:08:b3:ea:
                    86:67:70:b8:90:64:68:cd:29:b9:34:f2:59:97:10:
                    37:9d:0d:09:4a:f1:d4:b2:25:8b:fd:db:e9:a7:20:
                    c5:b0:0a:f3:b7:cb:30:d1:09
                Exponent: 65537 (0x10001)
        X509v3 extensions:
            X509v3 Basic Constraints: 
                CA:FALSE
            X509v3 Key Usage: 
                Digital Signature, Non Repudiation, Key Encipherment
            X509v3 Extended Key Usage: 
                TLS Web Server Authentication
            X509v3 Subject Alternative Name: 
                DNS:nodebrain.web.boeing.com, DNS:sysmon.web.boeing.com
    Signature Algorithm: sha1WithRSAEncryption
        6e:bb:64:34:30:e9:70:78:38:3b:2d:4d:02:76:4b:4c:cb:86:
        01:b6:b5:48:f2:7b:02:8d:e9:f1:ca:34:a9:e1:97:af:5c:92:
        d0:b3:ac:18:c1:f1:ba:29:d3:5b:69:11:12:0e:a4:ad:38:74:
        a1:0e:30:ce:7f:75:79:7c:d0:ca:28:48:be:67:63:7c:0e:e9:
        92:b1:c9:f9:0f:76:5a:9a:4c:03:f8:d7:04:1e:ae:6d:a1:8b:
        46:4b:96:3a:ea:86:c3:f4:30:2f:5e:ff:4c:98:d2:0d:4a:fd:
        cb:78:fd:b8:63:91:6a:1c:ea:5c:e4:c6:b0:29:42:80:69:2c:
        da:5a
-----BEGIN CERTIFICATE-----
MIIDVzCCAsCgAwIBAgIDEAASMA0GCSqGSIb3DQEBBQUAMIG+MQswCQYDVQQGEwJV
UzELMAkGA1UECBMCV0ExJjAkBgNVBAoTHU5vZGVCcmFpbiBPcGVuIFNvdXJjZSBQ
cm9qZWN0MSMwIQYDVQQLExpOb2RlQnJhaW4gV2Vic3RlciBUdXRvcmlhbDErMCkG
A1UEAxMiTm9kZUJyYWluIFdlYnN0ZXIgVHV0b3JpYWwgUm9vdCBDQTEoMCYGCSqG
SIb3DQEJARYZZWQuYS50cmV0dGV2aWtAYm9laW5nLmNvbTAeFw0xMjEyMzEyMjMy
NTJaFw0xMzEyMzEyMjMyNTJaMIG0MQswCQYDVQQGEwJVUzELMAkGA1UECBMCV0Ex
JjAkBgNVBAoTHU5vZGVCcmFpbiBPcGVuIFNvdXJjZSBQcm9qZWN0MSMwIQYDVQQL
ExpOb2RlQnJhaW4gV2Vic3RlciBUdXJvcmlhbDEhMB8GA1UEAxMYbm9kZWJyYWlu
LndlYi5ib2VpbmcuY29tMSgwJgYJKoZIhvcNAQkBFhllZC5hLnRyZXR0ZXZpa0Bi
b2VpbmcuY29tMIGfMA0GCSqGSIb3DQEBAQUAA4GNADCBiQKBgQDRa+iUG/LmvGxV
AhljAYpt3+Uryl9SW4dLXysVRPnEOrrqwA/5gRHWngKAoqWClHPj9Mfo2R5iG7jW
tCqq5ZLGfhp9agx/LKTT4wwYOvWFJWPDp1qS2Aiz6oZncLiQZGjNKbk08lmXEDed
DQlK8dSyJYv92+mnIMWwCvO3yzDRCQIDAQABo2swaTAJBgNVHRMEAjAAMAsGA1Ud
DwQEAwIF4DATBgNVHSUEDDAKBggrBgEFBQcDATA6BgNVHREEMzAxghhub2RlYnJh
aW4ud2ViLmJvZWluZy5jb22CFXN5c21vbi53ZWIuYm9laW5nLmNvbTANBgkqhkiG
9w0BAQUFAAOBgQBuu2Q0MOlweDg7LU0CdktMy4YBtrVI8nsCjenxyjSp4ZevXJLQ
s6wYwfG6KdNbaRESDqStOHShDjDOf3V5fNDKKEi+Z2N8DumSscn5D3ZamkwD+NcE
Hq5toYtGS5Y66obD9DAvXv9MmNINSv3LeP24Y5FqHOpc5MawKUKAaSzaWg==
-----END CERTIFICATE-----
